(dp0
S'q'
p1
L7399730819583349388319068858887697375185807729080244628872706810153622001674688291637163425425839194154503031794334510924028757807573068035776320762928503L
sS'p'
p2
L4403758510234957908895186988641331013796933407120255524048888259666574313468077037833261077786087729159012367167593787289012853221884599327334493287991163L
sS'phi'
p3
L32586627570188074802869966035654481328100156230090843350664376189203861773652571568095227747294808378044614150019070584068657748299479515227870054931714160996208606292634502263826274795888274921090508428726576972406902679823792834209845365584457630253130890647696530346581052578858813807552586019991813899324L
sS'priv_key'
p4
(L32586627570188074802869966035654481328100156230090843350664376189203861773652571568095227747294808378044614150019070584068657748299479515227870054931714172799697936110941799478082122324916663903831644629226729894001972500020107976975174836008960842180054204163095492274879265620469843265219949130805864818989L
L16524304610556430462943776497981684758969231742219378050363304238127926357804498910287041177191328961534678471255338602730140439686089091968158266136962609741324423708303476126393480244401376013852204262597259730701167573992292954964680720368458570269444954134785344126265073171202633567016513254821292108235L
tp5
sS'e'
p6
L9397929687185261040711632487883783044637378303406128699025717396579986517053337354359158406807101526507589197854261007154639235045906371696464117074784528374360852365466461368442951168578562351533416694326164822613219541863948029018973445410260478450089052129783584357057871380139183806187833734952820475391L
sS'd'
p7
L16524304610556430462943776497981684758969231742219378050363304238127926357804498910287041177191328961534678471255338602730140439686089091968158266136962609741324423708303476126393480244401376013852204262597259730701167573992292954964680720368458570269444954134785344126265073171202633567016513254821292108235L
sS'pub_key'
p8
(L32586627570188074802869966035654481328100156230090843350664376189203861773652571568095227747294808378044614150019070584068657748299479515227870054931714172799697936110941799478082122324916663903831644629226729894001972500020107976975174836008960842180054204163095492274879265620469843265219949130805864818989L
L9397929687185261040711632487883783044637378303406128699025717396579986517053337354359158406807101526507589197854261007154639235045906371696464117074784528374360852365466461368442951168578562351533416694326164822613219541863948029018973445410260478450089052129783584357057871380139183806187833734952820475391L
tp9
sS'modulus'
p10
L32586627570188074802869966035654481328100156230090843350664376189203861773652571568095227747294808378044614150019070584068657748299479515227870054931714172799697936110941799478082122324916663903831644629226729894001972500020107976975174836008960842180054204163095492274879265620469843265219949130805864818989L
s.